target datalayout = "e-m:e-p270:32:32-p271:32:32-p272:64:64-i64:64-i128:128-f80:128-n8:16:32:64-S128"
target triple = "x86_64-pc-linux-gnu"

%struct.ident_t = type { i32, i32, i32, i32, ptr }
%class.anon.170 = type { ptr, ptr }

@1 = private unnamed_addr constant %struct.ident_t { i32 0, i32 514, i32 0, i32 22, ptr @0 }, align 8

; Function Attrs: inlinehint mustprogress nounwind ssp uwtable
define linkonce_odr hidden noundef double @_ZN6open3d4core6linalg6kernel7dot_3x1IdEET_PKS4_S6_(ptr noundef %0, ptr noundef %1) #4 comdat {
  %3 = alloca ptr, align 8
  %4 = alloca ptr, align 8
  store ptr %0, ptr %3, align 8, !tbaa !62
  store ptr %1, ptr %4, align 8, !tbaa !62
  %5 = load ptr, ptr %3, align 8, !tbaa !62
  %6 = getelementptr inbounds double, ptr %5, i64 0
  %7 = load double, ptr %6, align 8, !tbaa !64
  %8 = load ptr, ptr %4, align 8, !tbaa !62
  %9 = getelementptr inbounds double, ptr %8, i64 0
  %10 = load double, ptr %9, align 8, !tbaa !64
  %11 = load ptr, ptr %3, align 8, !tbaa !62
  %12 = getelementptr inbounds double, ptr %11, i64 1
  %13 = load double, ptr %12, align 8, !tbaa !64
  %14 = load ptr, ptr %4, align 8, !tbaa !62
  %15 = getelementptr inbounds double, ptr %14, i64 1
  %16 = load double, ptr %15, align 8, !tbaa !64
  %17 = fmul double %13, %16
  %18 = call double @llvm.fmuladd.f64(double %7, double %10, double %17)
  %19 = load ptr, ptr %3, align 8, !tbaa !62
  %20 = getelementptr inbounds double, ptr %19, i64 2
  %21 = load double, ptr %20, align 8, !tbaa !64
  %22 = load ptr, ptr %4, align 8, !tbaa !62
  %23 = getelementptr inbounds double, ptr %22, i64 2
  %24 = load double, ptr %23, align 8, !tbaa !64
  %25 = call double @llvm.fmuladd.f64(double %21, double %24, double %18)
  ret double %25
}

; Function Attrs: noinline noreturn nounwind ssp uwtable
define linkonce_odr hidden void @__clang_call_terminate(ptr noundef %0) #13 comdat {
  %2 = call ptr @__cxa_begin_catch(ptr %0) #27
  call void @_ZSt9terminatev() #31
  unreachable
}

; Function Attrs: inlinehint mustprogress nounwind ssp uwtable
define internal void @"_ZZZZN6open3d1t8geometry6kernel10pointcloud36OrientNormalsToAlignWithDirectionCPUERNS_4core6TensorERKS5_ENK3$_0clEvENKUlvE0_clEvENKUllE_clEl"(ptr noundef nonnull align 8 dereferenceable(16) %0, i64 noundef %1) #4 align 2 {
  %3 = alloca ptr, align 8
  %4 = alloca i64, align 8
  %5 = alloca i64, align 8
  %6 = alloca ptr, align 8
  %7 = alloca double, align 8
  store ptr %0, ptr %3, align 8, !tbaa !32
  store i64 %1, ptr %4, align 8, !tbaa !15
  %8 = load ptr, ptr %3, align 8
  call void @llvm.lifetime.start.p0(i64 8, ptr %5) #27
  %9 = load i64, ptr %4, align 8, !tbaa !15
  %10 = mul nsw i64 3, %9
  store i64 %10, ptr %5, align 8, !tbaa !15
  call void @llvm.lifetime.start.p0(i64 8, ptr %6) #27
  %11 = getelementptr inbounds nuw %class.anon.170, ptr %8, i32 0, i32 0
  %12 = load ptr, ptr %11, align 8, !tbaa !1218
  %13 = load i64, ptr %5, align 8, !tbaa !15
  %14 = getelementptr inbounds double, ptr %12, i64 %13
  store ptr %14, ptr %6, align 8, !tbaa !62
  call void @llvm.lifetime.start.p0(i64 8, ptr %7) #27
  %15 = load ptr, ptr %6, align 8, !tbaa !62
  %16 = getelementptr inbounds double, ptr %15, i64 0
  %17 = load double, ptr %16, align 8, !tbaa !64
  %18 = load ptr, ptr %6, align 8, !tbaa !62
  %19 = getelementptr inbounds double, ptr %18, i64 0
  %20 = load double, ptr %19, align 8, !tbaa !64
  %21 = load ptr, ptr %6, align 8, !tbaa !62
  %22 = getelementptr inbounds double, ptr %21, i64 1
  %23 = load double, ptr %22, align 8, !tbaa !64
  %24 = load ptr, ptr %6, align 8, !tbaa !62
  %25 = getelementptr inbounds double, ptr %24, i64 1
  %26 = load double, ptr %25, align 8, !tbaa !64
  %27 = fmul double %23, %26
  %28 = call double @llvm.fmuladd.f64(double %17, double %20, double %27)
  %29 = load ptr, ptr %6, align 8, !tbaa !62
  %30 = getelementptr inbounds double, ptr %29, i64 2
  %31 = load double, ptr %30, align 8, !tbaa !64
  %32 = load ptr, ptr %6, align 8, !tbaa !62
  %33 = getelementptr inbounds double, ptr %32, i64 2
  %34 = load double, ptr %33, align 8, !tbaa !64
  %35 = call double @llvm.fmuladd.f64(double %31, double %34, double %28)
  %36 = call double @sqrt(double noundef %35) #27, !tbaa !47
  store double %36, ptr %7, align 8, !tbaa !64
  %37 = load double, ptr %7, align 8, !tbaa !64
  %38 = fcmp oeq double %37, 0.000000e+00
  br i1 %38, label %39, label %58

39:                                               ; preds = %2
  %40 = getelementptr inbounds nuw %class.anon.170, ptr %8, i32 0, i32 1
  %41 = load ptr, ptr %40, align 8, !tbaa !1220
  %42 = getelementptr inbounds double, ptr %41, i64 0
  %43 = load double, ptr %42, align 8, !tbaa !64
  %44 = load ptr, ptr %6, align 8, !tbaa !62
  %45 = getelementptr inbounds double, ptr %44, i64 0
  store double %43, ptr %45, align 8, !tbaa !64
  %46 = getelementptr inbounds nuw %class.anon.170, ptr %8, i32 0, i32 1
  %47 = load ptr, ptr %46, align 8, !tbaa !1220
  %48 = getelementptr inbounds double, ptr %47, i64 1
  %49 = load double, ptr %48, align 8, !tbaa !64
  %50 = load ptr, ptr %6, align 8, !tbaa !62
  %51 = getelementptr inbounds double, ptr %50, i64 1
  store double %49, ptr %51, align 8, !tbaa !64
  %52 = getelementptr inbounds nuw %class.anon.170, ptr %8, i32 0, i32 1
  %53 = load ptr, ptr %52, align 8, !tbaa !1220
  %54 = getelementptr inbounds double, ptr %53, i64 2
  %55 = load double, ptr %54, align 8, !tbaa !64
  %56 = load ptr, ptr %6, align 8, !tbaa !62
  %57 = getelementptr inbounds double, ptr %56, i64 2
  store double %55, ptr %57, align 8, !tbaa !64
  br label %78

58:                                               ; preds = %2
  %59 = load ptr, ptr %6, align 8, !tbaa !62
  %60 = getelementptr inbounds nuw %class.anon.170, ptr %8, i32 0, i32 1
  %61 = load ptr, ptr %60, align 8, !tbaa !1220
  %62 = call noundef double @_ZN6open3d4core6linalg6kernel7dot_3x1IdEET_PKS4_S6_(ptr noundef %59, ptr noundef %61)
  %63 = fcmp olt double %62, 0.000000e+00
  br i1 %63, label %64, label %77

64:                                               ; preds = %58
  %65 = load ptr, ptr %6, align 8, !tbaa !62
  %66 = getelementptr inbounds double, ptr %65, i64 0
  %67 = load double, ptr %66, align 8, !tbaa !64
  %68 = fmul double %67, -1.000000e+00
  store double %68, ptr %66, align 8, !tbaa !64
  %69 = load ptr, ptr %6, align 8, !tbaa !62
  %70 = getelementptr inbounds double, ptr %69, i64 1
  %71 = load double, ptr %70, align 8, !tbaa !64
  %72 = fmul double %71, -1.000000e+00
  store double %72, ptr %70, align 8, !tbaa !64
  %73 = load ptr, ptr %6, align 8, !tbaa !62
  %74 = getelementptr inbounds double, ptr %73, i64 2
  %75 = load double, ptr %74, align 8, !tbaa !64
  %76 = fmul double %75, -1.000000e+00
  store double %76, ptr %74, align 8, !tbaa !64
  br label %77

77:                                               ; preds = %64, %58
  br label %78

78:                                               ; preds = %77, %39
  call void @llvm.lifetime.end.p0(i64 8, ptr %7) #27
  call void @llvm.lifetime.end.p0(i64 8, ptr %6) #27
  call void @llvm.lifetime.end.p0(i64 8, ptr %5) #27
  ret void
}

; Function Attrs: alwaysinline norecurse nounwind ssp uwtable
define internal void @"_ZN6open3d4core15ParallelForCPU_IZZZNS_1t8geometry6kernel10pointcloud36OrientNormalsToAlignWithDirectionCPUERNS0_6TensorERKS6_ENK3$_0clEvENKUlvE0_clEvEUllE_EEvRKNS0_6DeviceElRKT_.omp_outlined"(ptr noalias noundef %0, ptr noalias noundef %1, ptr noundef nonnull align 8 dereferenceable(8) %2, ptr noundef nonnull align 8 dereferenceable(16) %3) #26 personality ptr @__gxx_personality_v0 {
  %5 = alloca ptr, align 8
  %6 = alloca ptr, align 8
  %7 = alloca ptr, align 8
  %8 = alloca ptr, align 8
  %9 = alloca ptr, align 8
  %10 = alloca i64, align 8
  %11 = alloca i64, align 8
  %12 = alloca i64, align 8
  %13 = alloca i64, align 8
  %14 = alloca i64, align 8
  %15 = alloca i64, align 8
  %16 = alloca i64, align 8
  %17 = alloca i32, align 4
  %18 = alloca i64, align 8
  store ptr %0, ptr %5, align 8, !tbaa !276
  store ptr %1, ptr %6, align 8, !tbaa !276
  store ptr %2, ptr %7, align 8, !tbaa !35
  store ptr %3, ptr %8, align 8, !tbaa !32
  %19 = load ptr, ptr %7, align 8, !tbaa !35
  %20 = load ptr, ptr %8, align 8, !tbaa !32
  store ptr %20, ptr %9, align 8
  call void @llvm.lifetime.start.p0(i64 8, ptr %10) #27
  call void @llvm.lifetime.start.p0(i64 8, ptr %11) #27
  %21 = load i64, ptr %19, align 8, !tbaa !15
  store i64 %21, ptr %11, align 8, !tbaa !15
  call void @llvm.lifetime.start.p0(i64 8, ptr %12) #27
  %22 = load i64, ptr %11, align 8, !tbaa !15
  %23 = sub nsw i64 %22, 0
  %24 = sdiv i64 %23, 1
  %25 = sub nsw i64 %24, 1
  store i64 %25, ptr %12, align 8, !tbaa !15
  call void @llvm.lifetime.start.p0(i64 8, ptr %13) #27
  store i64 0, ptr %13, align 8, !tbaa !15
  call void @llvm.lifetime.end.p0(i64 8, ptr %13) #27
  %26 = load i64, ptr %11, align 8, !tbaa !15
  %27 = icmp slt i64 0, %26
  br i1 %27, label %28, label %62

28:                                               ; preds = %4
  call void @llvm.lifetime.start.p0(i64 8, ptr %14) #27
  store i64 0, ptr %14, align 8, !tbaa !15
  call void @llvm.lifetime.start.p0(i64 8, ptr %15) #27
  %29 = load i64, ptr %12, align 8, !tbaa !15
  store i64 %29, ptr %15, align 8, !tbaa !15
  call void @llvm.lifetime.start.p0(i64 8, ptr %16) #27
  store i64 1, ptr %16, align 8, !tbaa !15
  call void @llvm.lifetime.start.p0(i64 4, ptr %17) #27
  store i32 0, ptr %17, align 4, !tbaa !47
  call void @llvm.lifetime.start.p0(i64 8, ptr %18) #27
  %30 = load ptr, ptr %5, align 8
  %31 = load i32, ptr %30, align 4, !tbaa !47
  call void @__kmpc_for_static_init_8(ptr @1, i32 %31, i32 34, ptr %17, ptr %14, ptr %15, ptr %16, i64 1, i64 1)
  %32 = load i64, ptr %15, align 8, !tbaa !15
  %33 = load i64, ptr %12, align 8, !tbaa !15
  %34 = icmp sgt i64 %32, %33
  br i1 %34, label %35, label %37

35:                                               ; preds = %28
  %36 = load i64, ptr %12, align 8, !tbaa !15
  br label %39

37:                                               ; preds = %28
  %38 = load i64, ptr %15, align 8, !tbaa !15
  br label %39

39:                                               ; preds = %37, %35
  %40 = phi i64 [ %36, %35 ], [ %38, %37 ]
  store i64 %40, ptr %15, align 8, !tbaa !15
  %41 = load i64, ptr %14, align 8, !tbaa !15
  store i64 %41, ptr %10, align 8, !tbaa !15
  br label %42

42:                                               ; preds = %55, %39
  %43 = load i64, ptr %10, align 8, !tbaa !15
  %44 = load i64, ptr %15, align 8, !tbaa !15
  %45 = icmp sle i64 %43, %44
  br i1 %45, label %47, label %46

46:                                               ; preds = %42
  br label %58

47:                                               ; preds = %42
  %48 = load i64, ptr %10, align 8, !tbaa !15
  %49 = mul nsw i64 %48, 1
  %50 = add nsw i64 0, %49
  store i64 %50, ptr %18, align 8, !tbaa !15
  %51 = load ptr, ptr %9, align 8, !tbaa !32
  %52 = load i64, ptr %18, align 8, !tbaa !15
  invoke void @"_ZZZZN6open3d1t8geometry6kernel10pointcloud36OrientNormalsToAlignWithDirectionCPUERNS_4core6TensorERKS5_ENK3$_0clEvENKUlvE0_clEvENKUllE_clEl"(ptr noundef nonnull align 8 dereferenceable(16) %51, i64 noundef %52)
          to label %53 unwind label %63

53:                                               ; preds = %47
  br label %54

54:                                               ; preds = %53
  br label %55

55:                                               ; preds = %54
  %56 = load i64, ptr %10, align 8, !tbaa !15
  %57 = add nsw i64 %56, 1
  store i64 %57, ptr %10, align 8, !tbaa !15
  br label %42

58:                                               ; preds = %46
  br label %59

59:                                               ; preds = %58
  %60 = load ptr, ptr %5, align 8
  %61 = load i32, ptr %60, align 4, !tbaa !47
  call void @__kmpc_for_static_fini(ptr @1, i32 %61)
  call void @llvm.lifetime.end.p0(i64 8, ptr %18) #27
  call void @llvm.lifetime.end.p0(i64 4, ptr %17) #27
  call void @llvm.lifetime.end.p0(i64 8, ptr %16) #27
  call void @llvm.lifetime.end.p0(i64 8, ptr %15) #27
  call void @llvm.lifetime.end.p0(i64 8, ptr %14) #27
  br label %62

62:                                               ; preds = %59, %4
  call void @llvm.lifetime.end.p0(i64 8, ptr %12) #27
  call void @llvm.lifetime.end.p0(i64 8, ptr %11) #27
  call void @llvm.lifetime.end.p0(i64 8, ptr %10) #27
  ret void

63:                                               ; preds = %47
  %64 = landingpad { ptr, i32 }
          catch ptr null
  %65 = extractvalue { ptr, i32 } %64, 0
  call void @__clang_call_terminate(ptr %65) #31
  unreachable
}